; Function Attrs: mustprogress uwtable
define dso_local void @_ZN6spdlog13set_formatterESt10unique_ptrINS_9formatterESt14default_deleteIS1_EE(ptr noundef captures(none) %0) local_unnamed_addr #6 personality ptr @__gxx_personality_v0 {
  %2 = alloca %"class.std::unique_ptr", align 8
  %3 = load atomic i8, ptr @_ZGVZN6spdlog7details8registry8instanceEvE10s_instance acquire, align 8
  %4 = icmp eq i8 %3, 0
  br i1 %4, label %5, label %_ZN6spdlog7details8registry8instanceEv.exit, !prof !79

5:                                                ; preds = %1
  %6 = tail call i32 @__cxa_guard_acquire(ptr nonnull @_ZGVZN6spdlog7details8registry8instanceEvE10s_instance) #37
  %.not.i = icmp eq i32 %6, 0
  br i1 %.not.i, label %_ZN6spdlog7details8registry8instanceEv.exit, label %7

7:                                                ; preds = %5
  invoke void @_ZN6spdlog7details8registryC2Ev(ptr noundef nonnull align 8 dereferenceable(336) @_ZZN6spdlog7details8registry8instanceEvE10s_instance)
          to label %8 unwind label %10

8:                                                ; preds = %7
  %9 = tail call i32 @__cxa_atexit(ptr nonnull @_ZN6spdlog7details8registryD2Ev, ptr nonnull @_ZZN6spdlog7details8registry8instanceEvE10s_instance, ptr nonnull @__dso_handle) #37
  tail call void @__cxa_guard_release(ptr nonnull @_ZGVZN6spdlog7details8registry8instanceEvE10s_instance) #37
  br label %_ZN6spdlog7details8registry8instanceEv.exit

common.resume:                                    ; preds = %_ZNKSt14default_deleteIN6spdlog9formatterEEclEPS1_.exit.i3, %18, %10
  %common.resume.op = phi { ptr, i32 } [ %11, %10 ], [ %19, %18 ], [ %19, %_ZNKSt14default_deleteIN6spdlog9formatterEEclEPS1_.exit.i3 ]
  resume { ptr, i32 } %common.resume.op

10:                                               ; preds = %7
  %11 = landingpad { ptr, i32 }
          cleanup
  tail call void @__cxa_guard_abort(ptr nonnull @_ZGVZN6spdlog7details8registry8instanceEvE10s_instance) #37
  br label %common.resume

_ZN6spdlog7details8registry8instanceEv.exit:      ; preds = %1, %5, %8
  %12 = load i64, ptr %0, align 8, !tbaa !110
  store i64 %12, ptr %2, align 8, !tbaa !110
  store ptr null, ptr %0, align 8, !tbaa !110
  invoke void @_ZN6spdlog7details8registry13set_formatterESt10unique_ptrINS_9formatterESt14default_deleteIS3_EE(ptr noundef nonnull align 8 dereferenceable(336) @_ZZN6spdlog7details8registry8instanceEvE10s_instance, ptr noundef nonnull %2)
          to label %13 unwind label %18

13:                                               ; preds = %_ZN6spdlog7details8registry8instanceEv.exit
  %14 = load ptr, ptr %2, align 8, !tbaa !110
  %.not.i1 = icmp eq ptr %14, null
  br i1 %.not.i1, label %_ZNSt10unique_ptrIN6spdlog9formatterESt14default_deleteIS1_EED2Ev.exit, label %_ZNKSt14default_deleteIN6spdlog9formatterEEclEPS1_.exit.i

_ZNKSt14default_deleteIN6spdlog9formatterEEclEPS1_.exit.i: ; preds = %13
  %15 = load ptr, ptr %14, align 8, !tbaa !9
  %16 = getelementptr inbounds nuw i8, ptr %15, i64 8
  %17 = load ptr, ptr %16, align 8
  tail call void %17(ptr noundef nonnull align 8 dereferenceable(8) %14) #37
  br label %_ZNSt10unique_ptrIN6spdlog9formatterESt14default_deleteIS1_EED2Ev.exit

_ZNSt10unique_ptrIN6spdlog9formatterESt14default_deleteIS1_EED2Ev.exit: ; preds = %13, %_ZNKSt14default_deleteIN6spdlog9formatterEEclEPS1_.exit.i
  ret void

18:                                               ; preds = %_ZN6spdlog7details8registry8instanceEv.exit
  %19 = landingpad { ptr, i32 }
          cleanup
  %20 = load ptr, ptr %2, align 8, !tbaa !110
  %.not.i2 = icmp eq ptr %20, null
  br i1 %.not.i2, label %common.resume, label %_ZNKSt14default_deleteIN6spdlog9formatterEEclEPS1_.exit.i3

_ZNKSt14default_deleteIN6spdlog9formatterEEclEPS1_.exit.i3: ; preds = %18
  %21 = load ptr, ptr %20, align 8, !tbaa !9
  %22 = getelementptr inbounds nuw i8, ptr %21, i64 8
  %23 = load ptr, ptr %22, align 8
  tail call void %23(ptr noundef nonnull align 8 dereferenceable(8) %20) #37
  br label %common.resume
}